; Function Attrs: noinline norecurse nounwind uwtable
define internal void @_ZN5faiss15pack_bitstringsEmmPKiS1_Phm.omp_outlined(ptr noalias noundef readonly captures(none) %0, ptr noalias readnone captures(none) %1, ptr noundef nonnull readonly align 8 captures(none) dereferenceable(8) %2, ptr noundef nonnull readonly align 8 captures(none) dereferenceable(8) %3, ptr noundef nonnull readonly align 8 captures(none) dereferenceable(8) %4, ptr noundef nonnull readonly align 8 captures(none) dereferenceable(8) %5, ptr noundef nonnull readonly align 8 captures(none) dereferenceable(8) %6, ptr noundef nonnull readonly align 8 captures(none) dereferenceable(8) %7) #4 personality ptr @__gxx_personality_v0 {
  %9 = alloca i64, align 8
  %10 = alloca i64, align 8
  %11 = alloca i64, align 8
  %12 = alloca i32, align 4
  %13 = load i64, ptr %2, align 8, !tbaa !4
  %.not = icmp eq i64 %13, 0
  br i1 %.not, label %68, label %14

14:                                               ; preds = %8
  %15 = add i64 %13, -1
  call void @llvm.lifetime.start.p0(i64 8, ptr nonnull %9) #5
  store i64 0, ptr %9, align 8, !tbaa !4
  call void @llvm.lifetime.start.p0(i64 8, ptr nonnull %10) #5
  store i64 %15, ptr %10, align 8, !tbaa !4
  call void @llvm.lifetime.start.p0(i64 8, ptr nonnull %11) #5
  store i64 1, ptr %11, align 8, !tbaa !4
  call void @llvm.lifetime.start.p0(i64 4, ptr nonnull %12) #5
  store i32 0, ptr %12, align 4, !tbaa !10
  %16 = load i32, ptr %0, align 4, !tbaa !10
  call void @__kmpc_for_static_init_8u(ptr nonnull @1, i32 %16, i32 34, ptr nonnull %12, ptr nonnull %9, ptr nonnull %10, ptr nonnull %11, i64 1, i64 1)
  %17 = load i64, ptr %10, align 8, !tbaa !4
  %18 = call i64 @llvm.umin.i64(i64 %17, i64 %15)
  store i64 %18, ptr %10, align 8, !tbaa !4
  %19 = load i64, ptr %9, align 8, !tbaa !4
  %.not37 = icmp ugt i64 %19, %18
  br i1 %.not37, label %._crit_edge34, label %.lr.ph33.preheader

.lr.ph33.preheader:                               ; preds = %14
  %.pre = load i64, ptr %4, align 8, !tbaa !4
  br label %.lr.ph33

.lr.ph33:                                         ; preds = %.lr.ph33.preheader, %._crit_edge
  %20 = phi i64 [ %29, %._crit_edge ], [ %.pre, %.lr.ph33.preheader ]
  %.02331 = phi i64 [ %30, %._crit_edge ], [ %19, %.lr.ph33.preheader ]
  %21 = load ptr, ptr %3, align 8, !tbaa !36
  %22 = mul i64 %20, %.02331
  %23 = getelementptr inbounds nuw i32, ptr %21, i64 %22
  %24 = load ptr, ptr %5, align 8, !tbaa !22
  %25 = load i64, ptr %6, align 8, !tbaa !4
  %26 = mul i64 %25, %.02331
  %27 = getelementptr inbounds nuw i8, ptr %24, i64 %26
  call void @llvm.memset.p0.i64(ptr align 1 %27, i8 0, i64 %25, i1 false)
  %28 = load i64, ptr %4, align 8, !tbaa !4
  %.not35 = icmp eq i64 %28, 0
  br i1 %.not35, label %._crit_edge, label %.lr.ph

._crit_edge:                                      ; preds = %_ZN5faiss15BitstringWriter5writeEmi.exit, %.lr.ph33
  %29 = phi i64 [ 0, %.lr.ph33 ], [ %66, %_ZN5faiss15BitstringWriter5writeEmi.exit ]
  %30 = add nuw i64 %.02331, 1
  %31 = load i64, ptr %10, align 8, !tbaa !4
  %32 = add i64 %31, 1
  %33 = icmp ult i64 %30, %32
  br i1 %33, label %.lr.ph33, label %._crit_edge34

.lr.ph:                                           ; preds = %.lr.ph33, %_ZN5faiss15BitstringWriter5writeEmi.exit
  %indvars.iv = phi i64 [ %indvars.iv.next, %_ZN5faiss15BitstringWriter5writeEmi.exit ], [ 0, %.lr.ph33 ]
  %.sroa.7.029 = phi i64 [ %.sroa.7.1, %_ZN5faiss15BitstringWriter5writeEmi.exit ], [ 0, %.lr.ph33 ]
  %34 = getelementptr inbounds nuw i32, ptr %23, i64 %indvars.iv
  %35 = load i32, ptr %34, align 4, !tbaa !10
  %36 = sext i32 %35 to i64
  %37 = load ptr, ptr %7, align 8, !tbaa !36
  %38 = getelementptr inbounds nuw i32, ptr %37, i64 %indvars.iv
  %39 = load i32, ptr %38, align 4, !tbaa !10
  %40 = and i64 %.sroa.7.029, 7
  %41 = trunc nuw nsw i64 %40 to i32
  %42 = sub nuw nsw i32 8, %41
  %.not.i = icmp sgt i32 %39, %42
  br i1 %.not.i, label %51, label %43

43:                                               ; preds = %.lr.ph
  %44 = shl nsw i64 %36, %40
  %45 = lshr i64 %.sroa.7.029, 3
  %46 = getelementptr inbounds nuw i8, ptr %27, i64 %45
  %47 = load i8, ptr %46, align 1, !tbaa !14
  %48 = trunc i64 %44 to i8
  %49 = or i8 %47, %48
  store i8 %49, ptr %46, align 1, !tbaa !14
  %50 = sext i32 %39 to i64
  br label %_ZN5faiss15BitstringWriter5writeEmi.exit

51:                                               ; preds = %.lr.ph
  %52 = lshr i64 %.sroa.7.029, 3
  %53 = shl nsw i64 %36, %40
  %54 = getelementptr inbounds nuw i8, ptr %27, i64 %52
  %55 = load i8, ptr %54, align 1, !tbaa !14
  %56 = trunc i64 %53 to i8
  %57 = or i8 %55, %56
  store i8 %57, ptr %54, align 1, !tbaa !14
  %58 = zext nneg i32 %39 to i64
  %59 = zext nneg i32 %42 to i64
  %60 = lshr i64 %36, %59
  %.not1617.i = icmp eq i64 %60, 0
  br i1 %.not1617.i, label %_ZN5faiss15BitstringWriter5writeEmi.exit, label %.lr.ph.i

.lr.ph.i:                                         ; preds = %51, %.lr.ph.i
  %.0.in19.i = phi i64 [ %.0.i, %.lr.ph.i ], [ %52, %51 ]
  %.01318.i = phi i64 [ %65, %.lr.ph.i ], [ %60, %51 ]
  %.0.i = add nuw nsw i64 %.0.in19.i, 1
  %61 = getelementptr inbounds nuw i8, ptr %27, i64 %.0.i
  %62 = load i8, ptr %61, align 1, !tbaa !14
  %63 = trunc i64 %.01318.i to i8
  %64 = or i8 %62, %63
  store i8 %64, ptr %61, align 1, !tbaa !14
  %65 = lshr i64 %.01318.i, 8
  %.not16.i = icmp samesign ult i64 %.01318.i, 256
  br i1 %.not16.i, label %_ZN5faiss15BitstringWriter5writeEmi.exit, label %.lr.ph.i, !llvm.loop !993

_ZN5faiss15BitstringWriter5writeEmi.exit:         ; preds = %.lr.ph.i, %43, %51
  %.pn = phi i64 [ %58, %51 ], [ %50, %43 ], [ %58, %.lr.ph.i ]
  %.sroa.7.1 = add i64 %.pn, %.sroa.7.029
  %indvars.iv.next = add nuw nsw i64 %indvars.iv, 1
  %66 = load i64, ptr %4, align 8, !tbaa !4
  %67 = icmp ugt i64 %66, %indvars.iv.next
  br i1 %67, label %.lr.ph, label %._crit_edge, !llvm.loop !996

._crit_edge34:                                    ; preds = %._crit_edge, %14
  call void @__kmpc_for_static_fini(ptr nonnull @1, i32 %16)
  call void @llvm.lifetime.end.p0(i64 4, ptr nonnull %12) #5
  call void @llvm.lifetime.end.p0(i64 8, ptr nonnull %11) #5
  call void @llvm.lifetime.end.p0(i64 8, ptr nonnull %10) #5
  call void @llvm.lifetime.end.p0(i64 8, ptr nonnull %9) #5
  br label %68

68:                                               ; preds = %._crit_edge34, %8
  ret void
}